; ModuleID = '22/590.c'
source_filename = "22/590.c"
target datalayout = "e-m:e-p270:32:32-p271:32:32-p272:64:64-i64:64-f80:128-n8:16:32:64-S128"
target triple = "x86_64-pc-linux-gnu"

@.str = private unnamed_addr constant [3 x i8] c"%d\00", align 1
@.str.1 = private unnamed_addr constant [4 x i8] c",%d\00", align 1
@.str.2 = private unnamed_addr constant [3 x i8] c"No\00", align 1

; Function Attrs: noinline nounwind uwtable
define dso_local i32 @main() #0 {
  %1 = alloca i32, align 4
  %2 = alloca i32, align 4
  %3 = alloca [300 x i32], align 16
  %4 = alloca i32, align 4
  %5 = alloca i32, align 4
  store i32 0, i32* %1, align 4
  %6 = bitcast [300 x i32]* %3 to i8*
  call void @llvm.memset.p0i8.i64(i8* align 16 %6, i8 0, i64 1200, i1 false)
  %7 = getelementptr inbounds [300 x i32], [300 x i32]* %3, i64 0, i64 0
  %8 = call i32 (i8*, ...) @__isoc99_scanf(i8* getelementptr inbounds ([3 x i8], [3 x i8]* @.str, i64 0, i64 0), i32* %7)
  store i32 1, i32* %2, align 4
  br label %9

9:                                                ; preds = %17, %0
  %10 = load i32, i32* %2, align 4
  %11 = icmp slt i32 %10, 300
  br i1 %11, label %12, label %20

12:                                               ; preds = %9
  %13 = load i32, i32* %2, align 4
  %14 = sext i32 %13 to i64
  %15 = getelementptr inbounds [300 x i32], [300 x i32]* %3, i64 0, i64 %14
  %16 = call i32 (i8*, ...) @__isoc99_scanf(i8* getelementptr inbounds ([4 x i8], [4 x i8]* @.str.1, i64 0, i64 0), i32* %15)
  br label %17

17:                                               ; preds = %12
  %18 = load i32, i32* %2, align 4
  %19 = add nsw i32 %18, 1
  store i32 %19, i32* %2, align 4
  br label %9

20:                                               ; preds = %9
  %21 = getelementptr inbounds [300 x i32], [300 x i32]* %3, i64 0, i64 1
  %22 = load i32, i32* %21, align 4
  %23 = getelementptr inbounds [300 x i32], [300 x i32]* %3, i64 0, i64 0
  %24 = load i32, i32* %23, align 16
  %25 = icmp slt i32 %22, %24
  br i1 %25, label %26, label %31

26:                                               ; preds = %20
  %27 = getelementptr inbounds [300 x i32], [300 x i32]* %3, i64 0, i64 0
  %28 = load i32, i32* %27, align 16
  store i32 %28, i32* %4, align 4
  %29 = getelementptr inbounds [300 x i32], [300 x i32]* %3, i64 0, i64 1
  %30 = load i32, i32* %29, align 4
  store i32 %30, i32* %5, align 4
  br label %46

31:                                               ; preds = %20
  %32 = getelementptr inbounds [300 x i32], [300 x i32]* %3, i64 0, i64 1
  %33 = load i32, i32* %32, align 4
  %34 = getelementptr inbounds [300 x i32], [300 x i32]* %3, i64 0, i64 0
  %35 = load i32, i32* %34, align 16
  %36 = icmp sgt i32 %33, %35
  br i1 %36, label %37, label %42

37:                                               ; preds = %31
  %38 = getelementptr inbounds [300 x i32], [300 x i32]* %3, i64 0, i64 0
  %39 = load i32, i32* %38, align 16
  store i32 %39, i32* %5, align 4
  %40 = getelementptr inbounds [300 x i32], [300 x i32]* %3, i64 0, i64 1
  %41 = load i32, i32* %40, align 4
  store i32 %41, i32* %4, align 4
  br label %45

42:                                               ; preds = %31
  %43 = getelementptr inbounds [300 x i32], [300 x i32]* %3, i64 0, i64 1
  %44 = load i32, i32* %43, align 4
  store i32 %44, i32* %4, align 4
  store i32 0, i32* %5, align 4
  br label %45

45:                                               ; preds = %42, %37
  br label %46

46:                                               ; preds = %45, %26
  store i32 2, i32* %2, align 4
  br label %47

47:                                               ; preds = %84, %46
  %48 = load i32, i32* %2, align 4
  %49 = icmp slt i32 %48, 300
  br i1 %49, label %50, label %87

50:                                               ; preds = %47
  %51 = load i32, i32* %2, align 4
  %52 = sext i32 %51 to i64
  %53 = getelementptr inbounds [300 x i32], [300 x i32]* %3, i64 0, i64 %52
  %54 = load i32, i32* %53, align 4
  %55 = load i32, i32* %4, align 4
  %56 = icmp sgt i32 %54, %55
  br i1 %56, label %57, label %63

57:                                               ; preds = %50
  %58 = load i32, i32* %4, align 4
  store i32 %58, i32* %5, align 4
  %59 = load i32, i32* %2, align 4
  %60 = sext i32 %59 to i64
  %61 = getelementptr inbounds [300 x i32], [300 x i32]* %3, i64 0, i64 %60
  %62 = load i32, i32* %61, align 4
  store i32 %62, i32* %4, align 4
  br label %83

63:                                               ; preds = %50
  %64 = load i32, i32* %2, align 4
  %65 = sext i32 %64 to i64
  %66 = getelementptr inbounds [300 x i32], [300 x i32]* %3, i64 0, i64 %65
  %67 = load i32, i32* %66, align 4
  %68 = load i32, i32* %5, align 4
  %69 = icmp sgt i32 %67, %68
  br i1 %69, label %70, label %82

70:                                               ; preds = %63
  %71 = load i32, i32* %2, align 4
  %72 = sext i32 %71 to i64
  %73 = getelementptr inbounds [300 x i32], [300 x i32]* %3, i64 0, i64 %72
  %74 = load i32, i32* %73, align 4
  %75 = load i32, i32* %4, align 4
  %76 = icmp ne i32 %74, %75
  br i1 %76, label %77, label %82

77:                                               ; preds = %70
  %78 = load i32, i32* %2, align 4
  %79 = sext i32 %78 to i64
  %80 = getelementptr inbounds [300 x i32], [300 x i32]* %3, i64 0, i64 %79
  %81 = load i32, i32* %80, align 4
  store i32 %81, i32* %5, align 4
  br label %82

82:                                               ; preds = %77, %70, %63
  br label %83

83:                                               ; preds = %82, %57
  br label %84

84:                                               ; preds = %83
  %85 = load i32, i32* %2, align 4
  %86 = add nsw i32 %85, 1
  store i32 %86, i32* %2, align 4
  br label %47

87:                                               ; preds = %47
  %88 = load i32, i32* %5, align 4
  %89 = icmp eq i32 %88, 0
  br i1 %89, label %90, label %92

90:                                               ; preds = %87
  %91 = call i32 (i8*, ...) @printf(i8* getelementptr inbounds ([3 x i8], [3 x i8]* @.str.2, i64 0, i64 0))
  br label %102

92:                                               ; preds = %87
  %93 = load i32, i32* %4, align 4
  %94 = load i32, i32* %5, align 4
  %95 = icmp eq i32 %93, %94
  br i1 %95, label %96, label %98

96:                                               ; preds = %92
  %97 = call i32 (i8*, ...) @printf(i8* getelementptr inbounds ([3 x i8], [3 x i8]* @.str.2, i64 0, i64 0))
  br label %101

98:                                               ; preds = %92
  %99 = load i32, i32* %5, align 4
  %100 = call i32 (i8*, ...) @printf(i8* getelementptr inbounds ([3 x i8], [3 x i8]* @.str, i64 0, i64 0), i32 %99)
  br label %101

101:                                              ; preds = %98, %96
  br label %102

102:                                              ; preds = %101, %90
  ret i32 0
}

; Function Attrs: argmemonly nounwind willreturn
declare void @llvm.memset.p0i8.i64(i8* nocapture writeonly, i8, i64, i1 immarg) #1

declare dso_local i32 @__isoc99_scanf(i8*, ...) #2

declare dso_local i32 @printf(i8*, ...) #2


!llvm.module.flags = !{!0}
!llvm.ident = !{!1}

!0 = !{i32 1, !"wchar_size", i32 4}
!1 = !{!"clang version 10.0.0-4ubuntu1 "}
