; ModuleID = 'source-C-CXX/21/590.c'
source_filename = "source-C-CXX/21/590.c"
target datalayout = "e-m:e-p270:32:32-p271:32:32-p272:64:64-i64:64-f80:128-n8:16:32:64-S128"
target triple = "x86_64-pc-linux-gnu"

@.str = private unnamed_addr constant [3 x i8] c"%d\00", align 1
@.str.1 = private unnamed_addr constant [4 x i8] c",%d\00", align 1
@.str.2 = private unnamed_addr constant [3 x i8] c"No\00", align 1

; Function Attrs: nofree nounwind sspstrong uwtable
define dso_local i32 @main() local_unnamed_addr #0 {
  %1 = alloca [300 x i32], align 16
  %2 = bitcast [300 x i32]* %1 to i8*
  call void @llvm.lifetime.start.p0i8(i64 1200, i8* nonnull %2) #4
  call void @llvm.memset.p0i8.i64(i8* noundef nonnull align 16 dereferenceable(1200) %2, i8 0, i64 1200, i1 false)
  %3 = getelementptr inbounds [300 x i32], [300 x i32]* %1, i64 0, i64 0
  %4 = call i32 (i8*, ...) @__isoc99_scanf(i8* getelementptr inbounds ([3 x i8], [3 x i8]* @.str, i64 0, i64 0), i32* nonnull %3)
  br label %5

5:                                                ; preds = %0, %5
  %6 = phi i64 [ 1, %0 ], [ %9, %5 ]
  %7 = getelementptr inbounds [300 x i32], [300 x i32]* %1, i64 0, i64 %6
  %8 = call i32 (i8*, ...) @__isoc99_scanf(i8* getelementptr inbounds ([4 x i8], [4 x i8]* @.str.1, i64 0, i64 0), i32* nonnull %7)
  %9 = add nuw nsw i64 %6, 1
  %10 = icmp eq i64 %9, 300
  br i1 %10, label %11, label %5, !llvm.loop !5

11:                                               ; preds = %5
  %12 = getelementptr inbounds [300 x i32], [300 x i32]* %1, i64 0, i64 1
  %13 = load i32, i32* %12, align 4, !tbaa !7
  %14 = load i32, i32* %3, align 16, !tbaa !7
  %15 = icmp slt i32 %13, %14
  %16 = icmp sgt i32 %13, %14
  %17 = select i1 %16, i32 %14, i32 0
  %18 = select i1 %15, i32 %14, i32 %13
  %19 = select i1 %15, i32 %13, i32 %17
  br label %20

20:                                               ; preds = %20, %11
  %21 = phi i64 [ 2, %11 ], [ %43, %20 ]
  %22 = phi i32 [ %19, %11 ], [ %42, %20 ]
  %23 = phi i32 [ %18, %11 ], [ %41, %20 ]
  %24 = getelementptr inbounds [300 x i32], [300 x i32]* %1, i64 0, i64 %21
  %25 = load i32, i32* %24, align 8, !tbaa !7
  %26 = icmp sgt i32 %25, %23
  %27 = icmp sle i32 %25, %22
  %28 = icmp eq i32 %25, %23
  %29 = select i1 %27, i1 true, i1 %28
  %30 = select i1 %29, i32 %22, i32 %25
  %31 = select i1 %26, i32 %25, i32 %23
  %32 = select i1 %26, i32 %23, i32 %30
  %33 = or i64 %21, 1
  %34 = getelementptr inbounds [300 x i32], [300 x i32]* %1, i64 0, i64 %33
  %35 = load i32, i32* %34, align 4, !tbaa !7
  %36 = icmp sgt i32 %35, %31
  %37 = icmp sle i32 %35, %32
  %38 = icmp eq i32 %35, %31
  %39 = select i1 %37, i1 true, i1 %38
  %40 = select i1 %39, i32 %32, i32 %35
  %41 = select i1 %36, i32 %35, i32 %31
  %42 = select i1 %36, i32 %31, i32 %40
  %43 = add nuw nsw i64 %21, 2
  %44 = icmp eq i64 %43, 300
  br i1 %44, label %45, label %20, !llvm.loop !11

45:                                               ; preds = %20
  %46 = icmp eq i32 %42, 0
  br i1 %46, label %47, label %49

47:                                               ; preds = %45
  %48 = call i32 (i8*, ...) @printf(i8* nonnull dereferenceable(1) getelementptr inbounds ([3 x i8], [3 x i8]* @.str.2, i64 0, i64 0))
  br label %55

49:                                               ; preds = %45
  %50 = icmp eq i32 %41, %42
  br i1 %50, label %51, label %53

51:                                               ; preds = %49
  %52 = call i32 (i8*, ...) @printf(i8* nonnull dereferenceable(1) getelementptr inbounds ([3 x i8], [3 x i8]* @.str.2, i64 0, i64 0))
  br label %55

53:                                               ; preds = %49
  %54 = call i32 (i8*, ...) @printf(i8* nonnull dereferenceable(1) getelementptr inbounds ([3 x i8], [3 x i8]* @.str, i64 0, i64 0), i32 %42)
  br label %55

55:                                               ; preds = %51, %53, %47
  call void @llvm.lifetime.end.p0i8(i64 1200, i8* nonnull %2) #4
  ret i32 0
}

; Function Attrs: argmemonly mustprogress nofree nosync nounwind willreturn
declare void @llvm.lifetime.start.p0i8(i64 immarg, i8* nocapture) #1

; Function Attrs: argmemonly mustprogress nofree nounwind willreturn writeonly
declare void @llvm.memset.p0i8.i64(i8* nocapture writeonly, i8, i64, i1 immarg) #2

; Function Attrs: nofree nounwind
declare noundef i32 @__isoc99_scanf(i8* nocapture noundef readonly, ...) local_unnamed_addr #3

; Function Attrs: nofree nounwind
declare noundef i32 @printf(i8* nocapture noundef readonly, ...) local_unnamed_addr #3

; Function Attrs: argmemonly mustprogress nofree nosync nounwind willreturn
declare void @llvm.lifetime.end.p0i8(i64 immarg, i8* nocapture) #1


!llvm.module.flags = !{!0, !1, !2, !3}
!llvm.ident = !{!4}

!0 = !{i32 1, !"wchar_size", i32 4}
!1 = !{i32 7, !"PIC Level", i32 2}
!2 = !{i32 7, !"PIE Level", i32 2}
!3 = !{i32 7, !"uwtable", i32 1}
!4 = !{!"clang version 13.0.0"}
!5 = distinct !{!5, !6}
!6 = !{!"llvm.loop.mustprogress"}
!7 = !{!8, !8, i64 0}
!8 = !{!"int", !9, i64 0}
!9 = !{!"omnipotent char", !10, i64 0}
!10 = !{!"Simple C/C++ TBAA"}
!11 = distinct !{!11, !6}
